target datalayout = "e-m:e-p270:32:32-p271:32:32-p272:64:64-i64:64-i128:128-f80:128-n8:16:32:64-S128"
target triple = "x86_64-pc-linux-gnu"

%struct.t_psdata = type { ptr, %"class.std::vector", float, i32 }
%"class.std::vector" = type { %"struct.std::_Vector_base" }
%"struct.std::_Vector_base" = type { %"struct.std::_Vector_base<t_rgb, std::allocator<t_rgb>>::_Vector_impl" }
%"struct.std::_Vector_base<t_rgb, std::allocator<t_rgb>>::_Vector_impl" = type { %"struct.std::_Vector_base<t_rgb, std::allocator<t_rgb>>::_Vector_impl_data" }
%"struct.std::_Vector_base<t_rgb, std::allocator<t_rgb>>::_Vector_impl_data" = type { ptr, ptr, ptr }

@.str.31 = private unnamed_addr constant [82 x i8] c"/by {def currentpoint %g y r %g %g r %g y neg r %g %g r f y add moveto} bind def\0A\00", align 1

; Function Attrs: mustprogress nounwind uwtable
define void @_Z16ps_init_rgb_nboxP8t_psdataff(ptr noundef %0, float noundef %1, float noundef %2) #3 {
  %4 = alloca ptr, align 8
  %5 = alloca float, align 4
  %6 = alloca float, align 4
  store ptr %0, ptr %4, align 8, !tbaa !26
  store float %1, ptr %5, align 4, !tbaa !15
  store float %2, ptr %6, align 4, !tbaa !15
  %7 = load float, ptr %6, align 4, !tbaa !15
  %8 = load ptr, ptr %4, align 8, !tbaa !26
  %9 = getelementptr inbounds nuw %struct.t_psdata, ptr %8, i32 0, i32 2
  store float %7, ptr %9, align 8, !tbaa !28
  %10 = load ptr, ptr %4, align 8, !tbaa !26
  %11 = getelementptr inbounds nuw %struct.t_psdata, ptr %10, i32 0, i32 0
  %12 = load ptr, ptr %11, align 8, !tbaa !17
  %13 = load float, ptr %5, align 4, !tbaa !15
  %14 = fpext float %13 to double
  %15 = load float, ptr %5, align 4, !tbaa !15
  %16 = fneg float %15
  %17 = fpext float %16 to double
  %18 = call i32 (ptr, ptr, ...) @fprintf(ptr noundef %12, ptr noundef @.str.31, double noundef 0.000000e+00, double noundef %14, double noundef 0.000000e+00, double noundef 0.000000e+00, double noundef %17, double noundef 0.000000e+00) #14
  ret void
}