; Function Attrs: mustprogress nofree nounwind uwtable
define void @_Z16ps_init_rgb_nboxP8t_psdataff(ptr noundef captures(none) initializes((32, 36)) %0, float noundef %1, float noundef %2) local_unnamed_addr #8 {
  %4 = getelementptr inbounds nuw i8, ptr %0, i64 32
  store float %2, ptr %4, align 8, !tbaa !51
  %5 = load ptr, ptr %0, align 8, !tbaa !9
  %6 = fpext float %1 to double
  %7 = fneg float %1
  %8 = fpext float %7 to double
  %9 = tail call i32 (ptr, ptr, ...) @fprintf(ptr noundef %5, ptr noundef nonnull @.str.31, double noundef 0.000000e+00, double noundef %6, double noundef 0.000000e+00, double noundef 0.000000e+00, double noundef %8, double noundef 0.000000e+00) #18
  ret void
}